; Function Attrs: mustprogress uwtable
define void @_ZN6casadi14integrator_outB5cxx11Ex(ptr dead_on_unwind noalias writable sret(%"class.std::__cxx11::basic_string") align 8 %0, i64 noundef %1) local_unnamed_addr #3 personality ptr @__gxx_personality_v0 {
  %3 = alloca %"class.std::allocator.0", align 1
  %4 = alloca %"class.std::allocator.0", align 1
  %5 = alloca %"class.std::allocator.0", align 1
  %6 = alloca %"class.std::allocator.0", align 1
  %7 = alloca %"class.std::allocator.0", align 1
  %8 = alloca %"class.std::allocator.0", align 1
  %9 = alloca %"class.std::allocator.0", align 1
  %10 = trunc i64 %1 to i32
  switch i32 %10, label %53 [
    i32 0, label %11
    i32 1, label %17
    i32 2, label %23
    i32 3, label %29
    i32 4, label %35
    i32 5, label %41
    i32 6, label %47
  ]

11:                                               ; preds = %2
  call void @_ZNSaIcEC1Ev(ptr noundef nonnull align 1 dereferenceable(1) %3) #29
  %12 = invoke noundef ptr @_ZNSt7__cxx1112basic_stringIcSt11char_traitsIcESaIcEE13_M_local_dataEv(ptr noundef nonnull align 8 dereferenceable(32) %0)
          to label %.noexc unwind label %15

.noexc:                                           ; preds = %11
  invoke void @_ZNSt7__cxx1112basic_stringIcSt11char_traitsIcESaIcEE12_Alloc_hiderC1EPcRKS3_(ptr noundef nonnull align 8 dereferenceable(8) %0, ptr noundef %12, ptr noundef nonnull align 1 dereferenceable(1) %3)
          to label %.noexc4 unwind label %15

.noexc4:                                          ; preds = %.noexc
  invoke void @_ZNSt7__cxx1112basic_stringIcSt11char_traitsIcESaIcEE12_M_constructIPKcEEvT_S8_St20forward_iterator_tag(ptr noundef nonnull align 8 dereferenceable(32) %0, ptr noundef nonnull @.str.34, ptr noundef nonnull getelementptr inbounds ([3 x i8], ptr @.str.34, i64 0, i64 2))
          to label %_ZNSt7__cxx1112basic_stringIcSt11char_traitsIcESaIcEEC2IS3_EEPKcRKS3_.exit unwind label %13

13:                                               ; preds = %.noexc4
  %14 = landingpad { ptr, i32 }
          cleanup
  call void @_ZNSaIcED2Ev(ptr noundef nonnull align 1 dereferenceable(1) %0) #29
  br label %.body

_ZNSt7__cxx1112basic_stringIcSt11char_traitsIcESaIcEEC2IS3_EEPKcRKS3_.exit: ; preds = %.noexc4
  call void @_ZNSaIcED1Ev(ptr noundef nonnull align 1 dereferenceable(1) %3) #29
  br label %54

15:                                               ; preds = %.noexc, %11
  %16 = landingpad { ptr, i32 }
          cleanup
  br label %.body

17:                                               ; preds = %2
  call void @_ZNSaIcEC1Ev(ptr noundef nonnull align 1 dereferenceable(1) %4) #29
  %18 = invoke noundef ptr @_ZNSt7__cxx1112basic_stringIcSt11char_traitsIcESaIcEE13_M_local_dataEv(ptr noundef nonnull align 8 dereferenceable(32) %0)
          to label %.noexc5 unwind label %21

.noexc5:                                          ; preds = %17
  invoke void @_ZNSt7__cxx1112basic_stringIcSt11char_traitsIcESaIcEE12_Alloc_hiderC1EPcRKS3_(ptr noundef nonnull align 8 dereferenceable(8) %0, ptr noundef %18, ptr noundef nonnull align 1 dereferenceable(1) %4)
          to label %.noexc6 unwind label %21

.noexc6:                                          ; preds = %.noexc5
  invoke void @_ZNSt7__cxx1112basic_stringIcSt11char_traitsIcESaIcEE12_M_constructIPKcEEvT_S8_St20forward_iterator_tag(ptr noundef nonnull align 8 dereferenceable(32) %0, ptr noundef nonnull @.str.35, ptr noundef nonnull getelementptr inbounds ([3 x i8], ptr @.str.35, i64 0, i64 2))
          to label %_ZNSt7__cxx1112basic_stringIcSt11char_traitsIcESaIcEEC2IS3_EEPKcRKS3_.exit9 unwind label %19

19:                                               ; preds = %.noexc6
  %20 = landingpad { ptr, i32 }
          cleanup
  call void @_ZNSaIcED2Ev(ptr noundef nonnull align 1 dereferenceable(1) %0) #29
  br label %.body

_ZNSt7__cxx1112basic_stringIcSt11char_traitsIcESaIcEEC2IS3_EEPKcRKS3_.exit9: ; preds = %.noexc6
  call void @_ZNSaIcED1Ev(ptr noundef nonnull align 1 dereferenceable(1) %4) #29
  br label %54

21:                                               ; preds = %.noexc5, %17
  %22 = landingpad { ptr, i32 }
          cleanup
  br label %.body

23:                                               ; preds = %2
  call void @_ZNSaIcEC1Ev(ptr noundef nonnull align 1 dereferenceable(1) %5) #29
  %24 = invoke noundef ptr @_ZNSt7__cxx1112basic_stringIcSt11char_traitsIcESaIcEE13_M_local_dataEv(ptr noundef nonnull align 8 dereferenceable(32) %0)
          to label %.noexc10 unwind label %27

.noexc10:                                         ; preds = %23
  invoke void @_ZNSt7__cxx1112basic_stringIcSt11char_traitsIcESaIcEE12_Alloc_hiderC1EPcRKS3_(ptr noundef nonnull align 8 dereferenceable(8) %0, ptr noundef %24, ptr noundef nonnull align 1 dereferenceable(1) %5)
          to label %.noexc11 unwind label %27

.noexc11:                                         ; preds = %.noexc10
  invoke void @_ZNSt7__cxx1112basic_stringIcSt11char_traitsIcESaIcEE12_M_constructIPKcEEvT_S8_St20forward_iterator_tag(ptr noundef nonnull align 8 dereferenceable(32) %0, ptr noundef nonnull @.str.36, ptr noundef nonnull getelementptr inbounds ([3 x i8], ptr @.str.36, i64 0, i64 2))
          to label %_ZNSt7__cxx1112basic_stringIcSt11char_traitsIcESaIcEEC2IS3_EEPKcRKS3_.exit14 unwind label %25

25:                                               ; preds = %.noexc11
  %26 = landingpad { ptr, i32 }
          cleanup
  call void @_ZNSaIcED2Ev(ptr noundef nonnull align 1 dereferenceable(1) %0) #29
  br label %.body

_ZNSt7__cxx1112basic_stringIcSt11char_traitsIcESaIcEEC2IS3_EEPKcRKS3_.exit14: ; preds = %.noexc11
  call void @_ZNSaIcED1Ev(ptr noundef nonnull align 1 dereferenceable(1) %5) #29
  br label %54

27:                                               ; preds = %.noexc10, %23
  %28 = landingpad { ptr, i32 }
          cleanup
  br label %.body

29:                                               ; preds = %2
  call void @_ZNSaIcEC1Ev(ptr noundef nonnull align 1 dereferenceable(1) %6) #29
  %30 = invoke noundef ptr @_ZNSt7__cxx1112basic_stringIcSt11char_traitsIcESaIcEE13_M_local_dataEv(ptr noundef nonnull align 8 dereferenceable(32) %0)
          to label %.noexc15 unwind label %33

.noexc15:                                         ; preds = %29
  invoke void @_ZNSt7__cxx1112basic_stringIcSt11char_traitsIcESaIcEE12_Alloc_hiderC1EPcRKS3_(ptr noundef nonnull align 8 dereferenceable(8) %0, ptr noundef %30, ptr noundef nonnull align 1 dereferenceable(1) %6)
          to label %.noexc16 unwind label %33

.noexc16:                                         ; preds = %.noexc15
  invoke void @_ZNSt7__cxx1112basic_stringIcSt11char_traitsIcESaIcEE12_M_constructIPKcEEvT_S8_St20forward_iterator_tag(ptr noundef nonnull align 8 dereferenceable(32) %0, ptr noundef nonnull @.str.37, ptr noundef nonnull getelementptr inbounds ([7 x i8], ptr @.str.37, i64 0, i64 6))
          to label %_ZNSt7__cxx1112basic_stringIcSt11char_traitsIcESaIcEEC2IS3_EEPKcRKS3_.exit19 unwind label %31

31:                                               ; preds = %.noexc16
  %32 = landingpad { ptr, i32 }
          cleanup
  call void @_ZNSaIcED2Ev(ptr noundef nonnull align 1 dereferenceable(1) %0) #29
  br label %.body

_ZNSt7__cxx1112basic_stringIcSt11char_traitsIcESaIcEEC2IS3_EEPKcRKS3_.exit19: ; preds = %.noexc16
  call void @_ZNSaIcED1Ev(ptr noundef nonnull align 1 dereferenceable(1) %6) #29
  br label %54

33:                                               ; preds = %.noexc15, %29
  %34 = landingpad { ptr, i32 }
          cleanup
  br label %.body

35:                                               ; preds = %2
  call void @_ZNSaIcEC1Ev(ptr noundef nonnull align 1 dereferenceable(1) %7) #29
  %36 = invoke noundef ptr @_ZNSt7__cxx1112basic_stringIcSt11char_traitsIcESaIcEE13_M_local_dataEv(ptr noundef nonnull align 8 dereferenceable(32) %0)
          to label %.noexc20 unwind label %39

.noexc20:                                         ; preds = %35
  invoke void @_ZNSt7__cxx1112basic_stringIcSt11char_traitsIcESaIcEE12_Alloc_hiderC1EPcRKS3_(ptr noundef nonnull align 8 dereferenceable(8) %0, ptr noundef %36, ptr noundef nonnull align 1 dereferenceable(1) %7)
          to label %.noexc21 unwind label %39

.noexc21:                                         ; preds = %.noexc20
  invoke void @_ZNSt7__cxx1112basic_stringIcSt11char_traitsIcESaIcEE12_M_constructIPKcEEvT_S8_St20forward_iterator_tag(ptr noundef nonnull align 8 dereferenceable(32) %0, ptr noundef nonnull @.str.38, ptr noundef nonnull getelementptr inbounds ([7 x i8], ptr @.str.38, i64 0, i64 6))
          to label %_ZNSt7__cxx1112basic_stringIcSt11char_traitsIcESaIcEEC2IS3_EEPKcRKS3_.exit24 unwind label %37

37:                                               ; preds = %.noexc21
  %38 = landingpad { ptr, i32 }
          cleanup
  call void @_ZNSaIcED2Ev(ptr noundef nonnull align 1 dereferenceable(1) %0) #29
  br label %.body

_ZNSt7__cxx1112basic_stringIcSt11char_traitsIcESaIcEEC2IS3_EEPKcRKS3_.exit24: ; preds = %.noexc21
  call void @_ZNSaIcED1Ev(ptr noundef nonnull align 1 dereferenceable(1) %7) #29
  br label %54

39:                                               ; preds = %.noexc20, %35
  %40 = landingpad { ptr, i32 }
          cleanup
  br label %.body

41:                                               ; preds = %2
  call void @_ZNSaIcEC1Ev(ptr noundef nonnull align 1 dereferenceable(1) %8) #29
  %42 = invoke noundef ptr @_ZNSt7__cxx1112basic_stringIcSt11char_traitsIcESaIcEE13_M_local_dataEv(ptr noundef nonnull align 8 dereferenceable(32) %0)
          to label %.noexc25 unwind label %45

.noexc25:                                         ; preds = %41
  invoke void @_ZNSt7__cxx1112basic_stringIcSt11char_traitsIcESaIcEE12_Alloc_hiderC1EPcRKS3_(ptr noundef nonnull align 8 dereferenceable(8) %0, ptr noundef %42, ptr noundef nonnull align 1 dereferenceable(1) %8)
          to label %.noexc26 unwind label %45

.noexc26:                                         ; preds = %.noexc25
  invoke void @_ZNSt7__cxx1112basic_stringIcSt11char_traitsIcESaIcEE12_M_constructIPKcEEvT_S8_St20forward_iterator_tag(ptr noundef nonnull align 8 dereferenceable(32) %0, ptr noundef nonnull @.str.21, ptr noundef nonnull getelementptr inbounds ([6 x i8], ptr @.str.21, i64 0, i64 5))
          to label %_ZNSt7__cxx1112basic_stringIcSt11char_traitsIcESaIcEEC2IS3_EEPKcRKS3_.exit29 unwind label %43

43:                                               ; preds = %.noexc26
  %44 = landingpad { ptr, i32 }
          cleanup
  call void @_ZNSaIcED2Ev(ptr noundef nonnull align 1 dereferenceable(1) %0) #29
  br label %.body

_ZNSt7__cxx1112basic_stringIcSt11char_traitsIcESaIcEEC2IS3_EEPKcRKS3_.exit29: ; preds = %.noexc26
  call void @_ZNSaIcED1Ev(ptr noundef nonnull align 1 dereferenceable(1) %8) #29
  br label %54

45:                                               ; preds = %.noexc25, %41
  %46 = landingpad { ptr, i32 }
          cleanup
  br label %.body

47:                                               ; preds = %2
  call void @_ZNSaIcEC1Ev(ptr noundef nonnull align 1 dereferenceable(1) %9) #29
  %48 = invoke noundef ptr @_ZNSt7__cxx1112basic_stringIcSt11char_traitsIcESaIcEE13_M_local_dataEv(ptr noundef nonnull align 8 dereferenceable(32) %0)
          to label %.noexc30 unwind label %51

.noexc30:                                         ; preds = %47
  invoke void @_ZNSt7__cxx1112basic_stringIcSt11char_traitsIcESaIcEE12_Alloc_hiderC1EPcRKS3_(ptr noundef nonnull align 8 dereferenceable(8) %0, ptr noundef %48, ptr noundef nonnull align 1 dereferenceable(1) %9)
          to label %.noexc31 unwind label %51

.noexc31:                                         ; preds = %.noexc30
  invoke void @_ZNSt7__cxx1112basic_stringIcSt11char_traitsIcESaIcEE12_M_constructIPKcEEvT_S8_St20forward_iterator_tag(ptr noundef nonnull align 8 dereferenceable(32) %0, ptr noundef nonnull @.str.22, ptr noundef nonnull getelementptr inbounds ([6 x i8], ptr @.str.22, i64 0, i64 5))
          to label %_ZNSt7__cxx1112basic_stringIcSt11char_traitsIcESaIcEEC2IS3_EEPKcRKS3_.exit34 unwind label %49

49:                                               ; preds = %.noexc31
  %50 = landingpad { ptr, i32 }
          cleanup
  call void @_ZNSaIcED2Ev(ptr noundef nonnull align 1 dereferenceable(1) %0) #29
  br label %.body

_ZNSt7__cxx1112basic_stringIcSt11char_traitsIcESaIcEEC2IS3_EEPKcRKS3_.exit34: ; preds = %.noexc31
  call void @_ZNSaIcED1Ev(ptr noundef nonnull align 1 dereferenceable(1) %9) #29
  br label %54

51:                                               ; preds = %.noexc30, %47
  %52 = landingpad { ptr, i32 }
          cleanup
  br label %.body

53:                                               ; preds = %2
  tail call void @_ZNSt7__cxx1112basic_stringIcSt11char_traitsIcESaIcEEC1Ev(ptr noundef nonnull align 8 dereferenceable(32) %0) #29
  br label %54

54:                                               ; preds = %53, %_ZNSt7__cxx1112basic_stringIcSt11char_traitsIcESaIcEEC2IS3_EEPKcRKS3_.exit34, %_ZNSt7__cxx1112basic_stringIcSt11char_traitsIcESaIcEEC2IS3_EEPKcRKS3_.exit29, %_ZNSt7__cxx1112basic_stringIcSt11char_traitsIcESaIcEEC2IS3_EEPKcRKS3_.exit24, %_ZNSt7__cxx1112basic_stringIcSt11char_traitsIcESaIcEEC2IS3_EEPKcRKS3_.exit19, %_ZNSt7__cxx1112basic_stringIcSt11char_traitsIcESaIcEEC2IS3_EEPKcRKS3_.exit14, %_ZNSt7__cxx1112basic_stringIcSt11char_traitsIcESaIcEEC2IS3_EEPKcRKS3_.exit9, %_ZNSt7__cxx1112basic_stringIcSt11char_traitsIcESaIcEEC2IS3_EEPKcRKS3_.exit
  ret void

.body:                                            ; preds = %51, %49, %45, %43, %39, %37, %33, %31, %27, %25, %21, %19, %15, %13
  %.sink = phi ptr [ %3, %13 ], [ %3, %15 ], [ %4, %19 ], [ %4, %21 ], [ %5, %25 ], [ %5, %27 ], [ %6, %31 ], [ %6, %33 ], [ %7, %37 ], [ %7, %39 ], [ %8, %43 ], [ %8, %45 ], [ %9, %49 ], [ %9, %51 ]
  %.pn = phi { ptr, i32 } [ %14, %13 ], [ %16, %15 ], [ %20, %19 ], [ %22, %21 ], [ %26, %25 ], [ %28, %27 ], [ %32, %31 ], [ %34, %33 ], [ %38, %37 ], [ %40, %39 ], [ %44, %43 ], [ %46, %45 ], [ %50, %49 ], [ %52, %51 ]
  call void @_ZNSaIcED1Ev(ptr noundef nonnull align 1 dereferenceable(1) %.sink) #29
  resume { ptr, i32 } %.pn
}